target datalayout = "e-m:e-p270:32:32-p271:32:32-p272:64:64-i64:64-i128:128-f80:128-n8:16:32:64-S128"
target triple = "x86_64-pc-linux-gnu"

; Function Attrs: mustprogress nounwind uwtable
define linkonce_odr hidden void @_ZN2cv12cpu_baseline12acc_general_IfdEEvPKT_PT0_PKhiii(ptr noundef %0, ptr noundef %1, ptr noundef %2, i32 noundef %3, i32 noundef %4, i32 noundef %5) #2 comdat {
  %7 = alloca ptr, align 8
  %8 = alloca ptr, align 8
  %9 = alloca ptr, align 8
  %10 = alloca i32, align 4
  %11 = alloca i32, align 4
  %12 = alloca i32, align 4
  %13 = alloca i32, align 4
  %14 = alloca i32, align 4
  store ptr %0, ptr %7, align 8, !tbaa !8
  store ptr %1, ptr %8, align 8, !tbaa !29
  store ptr %2, ptr %9, align 8, !tbaa !3
  store i32 %3, ptr %10, align 4, !tbaa !10
  store i32 %4, ptr %11, align 4, !tbaa !10
  store i32 %5, ptr %12, align 4, !tbaa !10
  call void @llvm.lifetime.start.p0(i64 4, ptr %13) #4
  %15 = load i32, ptr %12, align 4, !tbaa !10
  store i32 %15, ptr %13, align 4, !tbaa !10
  %16 = load ptr, ptr %9, align 8, !tbaa !3
  %17 = icmp ne ptr %16, null
  br i1 %17, label %43, label %18

18:                                               ; preds = %6
  %19 = load i32, ptr %11, align 4, !tbaa !10
  %20 = load i32, ptr %10, align 4, !tbaa !10
  %21 = mul nsw i32 %20, %19
  store i32 %21, ptr %10, align 4, !tbaa !10
  br label %22

22:                                               ; preds = %39, %18
  %23 = load i32, ptr %13, align 4, !tbaa !10
  %24 = load i32, ptr %10, align 4, !tbaa !10
  %25 = icmp slt i32 %23, %24
  br i1 %25, label %26, label %42

26:                                               ; preds = %22
  %27 = load ptr, ptr %7, align 8, !tbaa !8
  %28 = load i32, ptr %13, align 4, !tbaa !10
  %29 = sext i32 %28 to i64
  %30 = getelementptr inbounds float, ptr %27, i64 %29
  %31 = load float, ptr %30, align 4, !tbaa !13
  %32 = fpext float %31 to double
  %33 = load ptr, ptr %8, align 8, !tbaa !29
  %34 = load i32, ptr %13, align 4, !tbaa !10
  %35 = sext i32 %34 to i64
  %36 = getelementptr inbounds double, ptr %33, i64 %35
  %37 = load double, ptr %36, align 8, !tbaa !31
  %38 = fadd double %37, %32
  store double %38, ptr %36, align 8, !tbaa !31
  br label %39

39:                                               ; preds = %26
  %40 = load i32, ptr %13, align 4, !tbaa !10
  %41 = add nsw i32 %40, 1
  store i32 %41, ptr %13, align 4, !tbaa !10
  br label %22, !llvm.loop !39

42:                                               ; preds = %22
  br label %103

43:                                               ; preds = %6
  %44 = load i32, ptr %13, align 4, !tbaa !10
  %45 = load i32, ptr %11, align 4, !tbaa !10
  %46 = mul nsw i32 %44, %45
  %47 = load ptr, ptr %7, align 8, !tbaa !8
  %48 = sext i32 %46 to i64
  %49 = getelementptr inbounds float, ptr %47, i64 %48
  store ptr %49, ptr %7, align 8, !tbaa !8
  %50 = load i32, ptr %13, align 4, !tbaa !10
  %51 = load i32, ptr %11, align 4, !tbaa !10
  %52 = mul nsw i32 %50, %51
  %53 = load ptr, ptr %8, align 8, !tbaa !29
  %54 = sext i32 %52 to i64
  %55 = getelementptr inbounds double, ptr %53, i64 %54
  store ptr %55, ptr %8, align 8, !tbaa !29
  br label %56

56:                                               ; preds = %91, %43
  %57 = load i32, ptr %13, align 4, !tbaa !10
  %58 = load i32, ptr %10, align 4, !tbaa !10
  %59 = icmp slt i32 %57, %58
  br i1 %59, label %60, label %102

60:                                               ; preds = %56
  %61 = load ptr, ptr %9, align 8, !tbaa !3
  %62 = load i32, ptr %13, align 4, !tbaa !10
  %63 = sext i32 %62 to i64
  %64 = getelementptr inbounds i8, ptr %61, i64 %63
  %65 = load i8, ptr %64, align 1, !tbaa !12
  %66 = icmp ne i8 %65, 0
  br i1 %66, label %67, label %90

67:                                               ; preds = %60
  call void @llvm.lifetime.start.p0(i64 4, ptr %14) #4
  store i32 0, ptr %14, align 4, !tbaa !10
  br label %68

68:                                               ; preds = %86, %67
  %69 = load i32, ptr %14, align 4, !tbaa !10
  %70 = load i32, ptr %11, align 4, !tbaa !10
  %71 = icmp slt i32 %69, %70
  br i1 %71, label %73, label %72

72:                                               ; preds = %68
  call void @llvm.lifetime.end.p0(i64 4, ptr %14) #4
  br label %89

73:                                               ; preds = %68
  %74 = load ptr, ptr %7, align 8, !tbaa !8
  %75 = load i32, ptr %14, align 4, !tbaa !10
  %76 = sext i32 %75 to i64
  %77 = getelementptr inbounds float, ptr %74, i64 %76
  %78 = load float, ptr %77, align 4, !tbaa !13
  %79 = fpext float %78 to double
  %80 = load ptr, ptr %8, align 8, !tbaa !29
  %81 = load i32, ptr %14, align 4, !tbaa !10
  %82 = sext i32 %81 to i64
  %83 = getelementptr inbounds double, ptr %80, i64 %82
  %84 = load double, ptr %83, align 8, !tbaa !31
  %85 = fadd double %84, %79
  store double %85, ptr %83, align 8, !tbaa !31
  br label %86

86:                                               ; preds = %73
  %87 = load i32, ptr %14, align 4, !tbaa !10
  %88 = add nsw i32 %87, 1
  store i32 %88, ptr %14, align 4, !tbaa !10
  br label %68, !llvm.loop !40

89:                                               ; preds = %72
  br label %90

90:                                               ; preds = %89, %60
  br label %91

91:                                               ; preds = %90
  %92 = load i32, ptr %13, align 4, !tbaa !10
  %93 = add nsw i32 %92, 1
  store i32 %93, ptr %13, align 4, !tbaa !10
  %94 = load i32, ptr %11, align 4, !tbaa !10
  %95 = load ptr, ptr %7, align 8, !tbaa !8
  %96 = sext i32 %94 to i64
  %97 = getelementptr inbounds float, ptr %95, i64 %96
  store ptr %97, ptr %7, align 8, !tbaa !8
  %98 = load i32, ptr %11, align 4, !tbaa !10
  %99 = load ptr, ptr %8, align 8, !tbaa !29
  %100 = sext i32 %98 to i64
  %101 = getelementptr inbounds double, ptr %99, i64 %100
  store ptr %101, ptr %8, align 8, !tbaa !29
  br label %56, !llvm.loop !41

102:                                              ; preds = %56
  br label %103

103:                                              ; preds = %102, %42
  call void @llvm.lifetime.end.p0(i64 4, ptr %13) #4
  ret void
}

; Function Attrs: mustprogress uwtable
define hidden void @_ZN2cv12cpu_baseline9acc_simd_EPKfPdPKhii(ptr noundef %0, ptr noundef %1, ptr noundef %2, i32 noundef %3, i32 noundef %4) #0 {
  %6 = alloca ptr, align 8
  %7 = alloca ptr, align 8
  %8 = alloca ptr, align 8
  %9 = alloca i32, align 4
  %10 = alloca i32, align 4
  %11 = alloca i32, align 4
  store ptr %0, ptr %6, align 8, !tbaa !8
  store ptr %1, ptr %7, align 8, !tbaa !29
  store ptr %2, ptr %8, align 8, !tbaa !3
  store i32 %3, ptr %9, align 4, !tbaa !10
  store i32 %4, ptr %10, align 4, !tbaa !10
  call void @llvm.lifetime.start.p0(i64 4, ptr %11) #4
  store i32 0, ptr %11, align 4, !tbaa !10
  %12 = load ptr, ptr %6, align 8, !tbaa !8
  %13 = load ptr, ptr %7, align 8, !tbaa !29
  %14 = load ptr, ptr %8, align 8, !tbaa !3
  %15 = load i32, ptr %9, align 4, !tbaa !10
  %16 = load i32, ptr %10, align 4, !tbaa !10
  %17 = load i32, ptr %11, align 4, !tbaa !10
  call void @_ZN2cv12cpu_baseline12acc_general_IfdEEvPKT_PT0_PKhiii(ptr noundef %12, ptr noundef %13, ptr noundef %14, i32 noundef %15, i32 noundef %16, i32 noundef %17)
  call void @llvm.lifetime.end.p0(i64 4, ptr %11) #4
  ret void
}